target datalayout = "e-m:e-p270:32:32-p271:32:32-p272:64:64-i64:64-i128:128-f80:128-n8:16:32:64-S128"
target triple = "x86_64-pc-linux-gnu"

%"class.cv::Size_" = type { i32, i32 }
%"class.testing::internal::linked_ptr_internal" = type { ptr }
%"struct.std::_Head_base.25" = type { %"class.cv::Size_" }
%"class.testing::internal::ParamGenerator.40" = type { %"class.testing::internal::linked_ptr.41" }
%"class.testing::internal::linked_ptr.41" = type { ptr, %"class.testing::internal::linked_ptr_internal" }
%"class.testing::internal::CartesianProductHolder2" = type { %"class.testing::internal::ValueArray12", %"class.testing::internal::ValueArray2" }
%"class.testing::internal::ValueArray12" = type { i32, i32, i32, i32, i32, i32, i32, i32, i32, i32, i32, i32 }
%"class.testing::internal::ValueArray2" = type { %"class.std::tuple.46", %"class.std::tuple.46" }
%"class.std::tuple.46" = type { %"struct.std::_Tuple_impl.47" }
%"struct.std::_Tuple_impl.47" = type { %"struct.std::_Tuple_impl.48", %"struct.std::_Head_base.49" }
%"struct.std::_Tuple_impl.48" = type { %"struct.std::_Head_base.25" }
%"struct.std::_Head_base.49" = type { %"class.cv::Size_" }

@_ZN4perfL5szVGAE = internal global %"class.cv::Size_" zeroinitializer, align 4
@_ZN4perfL5szqHDE = internal global %"class.cv::Size_" zeroinitializer, align 4
@_ZN4perfL6sz720pE = internal global %"class.cv::Size_" zeroinitializer, align 4

; Function Attrs: mustprogress nounwind uwtable
define linkonce_odr hidden void @_ZNSt10_Head_baseILm1EN2cv5Size_IiEELb0EEC2ERKS2_(ptr noundef nonnull align 4 dereferenceable(8) %0, ptr noundef nonnull align 4 dereferenceable(8) %1) unnamed_addr #9 comdat align 2 {
  %3 = alloca ptr, align 8
  %4 = alloca ptr, align 8
  store ptr %0, ptr %3, align 8, !tbaa !371
  store ptr %1, ptr %4, align 8, !tbaa !4
  %5 = load ptr, ptr %3, align 8
  %6 = getelementptr inbounds nuw %"struct.std::_Head_base.25", ptr %5, i32 0, i32 0
  %7 = load ptr, ptr %4, align 8, !tbaa !4
  call void @llvm.memcpy.p0.p0.i64(ptr align 4 %6, ptr align 4 %7, i64 8, i1 false), !tbaa.struct !79
  ret void
}

; Function Attrs: mustprogress nounwind uwtable
define linkonce_odr hidden void @_ZN7testing8internal11ValueArray2ISt5tupleIJN2cv5Size_IiEES5_EES6_EC2ERKS7_(ptr noundef nonnull align 4 dereferenceable(32) %0, ptr noundef nonnull align 4 dereferenceable(32) %1) unnamed_addr #9 comdat align 2 {
  %3 = alloca ptr, align 8
  %4 = alloca ptr, align 8
  store ptr %0, ptr %3, align 8, !tbaa !481
  store ptr %1, ptr %4, align 8, !tbaa !481
  %5 = load ptr, ptr %3, align 8
  %6 = getelementptr inbounds nuw %"class.testing::internal::ValueArray2", ptr %5, i32 0, i32 0
  %7 = load ptr, ptr %4, align 8, !tbaa !481
  %8 = getelementptr inbounds nuw %"class.testing::internal::ValueArray2", ptr %7, i32 0, i32 0
  call void @llvm.memcpy.p0.p0.i64(ptr align 4 %6, ptr align 4 %8, i64 16, i1 false)
  %9 = getelementptr inbounds nuw %"class.testing::internal::ValueArray2", ptr %5, i32 0, i32 1
  %10 = load ptr, ptr %4, align 8, !tbaa !481
  %11 = getelementptr inbounds nuw %"class.testing::internal::ValueArray2", ptr %10, i32 0, i32 1
  call void @llvm.memcpy.p0.p0.i64(ptr align 4 %9, ptr align 4 %11, i64 16, i1 false)
  ret void
}

; Function Attrs: mustprogress nounwind uwtable
define linkonce_odr hidden void @_ZN7testing8internal12ValueArray12IiiiiiiiiiiiiEC2ERKS2_(ptr noundef nonnull align 4 dereferenceable(48) %0, ptr noundef nonnull align 4 dereferenceable(48) %1) unnamed_addr #9 comdat align 2 {
  %3 = alloca ptr, align 8
  %4 = alloca ptr, align 8
  store ptr %0, ptr %3, align 8, !tbaa !479
  store ptr %1, ptr %4, align 8, !tbaa !479
  %5 = load ptr, ptr %3, align 8
  %6 = getelementptr inbounds nuw %"class.testing::internal::ValueArray12", ptr %5, i32 0, i32 0
  %7 = load ptr, ptr %4, align 8, !tbaa !479
  %8 = getelementptr inbounds nuw %"class.testing::internal::ValueArray12", ptr %7, i32 0, i32 0
  %9 = load i32, ptr %8, align 4, !tbaa !485
  store i32 %9, ptr %6, align 4, !tbaa !485
  %10 = getelementptr inbounds nuw %"class.testing::internal::ValueArray12", ptr %5, i32 0, i32 1
  %11 = load ptr, ptr %4, align 8, !tbaa !479
  %12 = getelementptr inbounds nuw %"class.testing::internal::ValueArray12", ptr %11, i32 0, i32 1
  %13 = load i32, ptr %12, align 4, !tbaa !487
  store i32 %13, ptr %10, align 4, !tbaa !487
  %14 = getelementptr inbounds nuw %"class.testing::internal::ValueArray12", ptr %5, i32 0, i32 2
  %15 = load ptr, ptr %4, align 8, !tbaa !479
  %16 = getelementptr inbounds nuw %"class.testing::internal::ValueArray12", ptr %15, i32 0, i32 2
  %17 = load i32, ptr %16, align 4, !tbaa !488
  store i32 %17, ptr %14, align 4, !tbaa !488
  %18 = getelementptr inbounds nuw %"class.testing::internal::ValueArray12", ptr %5, i32 0, i32 3
  %19 = load ptr, ptr %4, align 8, !tbaa !479
  %20 = getelementptr inbounds nuw %"class.testing::internal::ValueArray12", ptr %19, i32 0, i32 3
  %21 = load i32, ptr %20, align 4, !tbaa !489
  store i32 %21, ptr %18, align 4, !tbaa !489
  %22 = getelementptr inbounds nuw %"class.testing::internal::ValueArray12", ptr %5, i32 0, i32 4
  %23 = load ptr, ptr %4, align 8, !tbaa !479
  %24 = getelementptr inbounds nuw %"class.testing::internal::ValueArray12", ptr %23, i32 0, i32 4
  %25 = load i32, ptr %24, align 4, !tbaa !490
  store i32 %25, ptr %22, align 4, !tbaa !490
  %26 = getelementptr inbounds nuw %"class.testing::internal::ValueArray12", ptr %5, i32 0, i32 5
  %27 = load ptr, ptr %4, align 8, !tbaa !479
  %28 = getelementptr inbounds nuw %"class.testing::internal::ValueArray12", ptr %27, i32 0, i32 5
  %29 = load i32, ptr %28, align 4, !tbaa !491
  store i32 %29, ptr %26, align 4, !tbaa !491
  %30 = getelementptr inbounds nuw %"class.testing::internal::ValueArray12", ptr %5, i32 0, i32 6
  %31 = load ptr, ptr %4, align 8, !tbaa !479
  %32 = getelementptr inbounds nuw %"class.testing::internal::ValueArray12", ptr %31, i32 0, i32 6
  %33 = load i32, ptr %32, align 4, !tbaa !492
  store i32 %33, ptr %30, align 4, !tbaa !492
  %34 = getelementptr inbounds nuw %"class.testing::internal::ValueArray12", ptr %5, i32 0, i32 7
  %35 = load ptr, ptr %4, align 8, !tbaa !479
  %36 = getelementptr inbounds nuw %"class.testing::internal::ValueArray12", ptr %35, i32 0, i32 7
  %37 = load i32, ptr %36, align 4, !tbaa !493
  store i32 %37, ptr %34, align 4, !tbaa !493
  %38 = getelementptr inbounds nuw %"class.testing::internal::ValueArray12", ptr %5, i32 0, i32 8
  %39 = load ptr, ptr %4, align 8, !tbaa !479
  %40 = getelementptr inbounds nuw %"class.testing::internal::ValueArray12", ptr %39, i32 0, i32 8
  %41 = load i32, ptr %40, align 4, !tbaa !494
  store i32 %41, ptr %38, align 4, !tbaa !494
  %42 = getelementptr inbounds nuw %"class.testing::internal::ValueArray12", ptr %5, i32 0, i32 9
  %43 = load ptr, ptr %4, align 8, !tbaa !479
  %44 = getelementptr inbounds nuw %"class.testing::internal::ValueArray12", ptr %43, i32 0, i32 9
  %45 = load i32, ptr %44, align 4, !tbaa !495
  store i32 %45, ptr %42, align 4, !tbaa !495
  %46 = getelementptr inbounds nuw %"class.testing::internal::ValueArray12", ptr %5, i32 0, i32 10
  %47 = load ptr, ptr %4, align 8, !tbaa !479
  %48 = getelementptr inbounds nuw %"class.testing::internal::ValueArray12", ptr %47, i32 0, i32 10
  %49 = load i32, ptr %48, align 4, !tbaa !496
  store i32 %49, ptr %46, align 4, !tbaa !496
  %50 = getelementptr inbounds nuw %"class.testing::internal::ValueArray12", ptr %5, i32 0, i32 11
  %51 = load ptr, ptr %4, align 8, !tbaa !479
  %52 = getelementptr inbounds nuw %"class.testing::internal::ValueArray12", ptr %51, i32 0, i32 11
  %53 = load i32, ptr %52, align 4, !tbaa !497
  store i32 %53, ptr %50, align 4, !tbaa !497
  ret void
}

; Function Attrs: mustprogress nounwind uwtable
define linkonce_odr hidden void @_ZNSt10_Head_baseILm0EN2cv5Size_IiEELb0EEC2ERKS2_(ptr noundef nonnull align 4 dereferenceable(8) %0, ptr noundef nonnull align 4 dereferenceable(8) %1) unnamed_addr #9 comdat align 2 {
  %3 = alloca ptr, align 8
  %4 = alloca ptr, align 8
  store ptr %0, ptr %3, align 8, !tbaa !502
  store ptr %1, ptr %4, align 8, !tbaa !4
  %5 = load ptr, ptr %3, align 8
  %6 = getelementptr inbounds nuw %"struct.std::_Head_base.49", ptr %5, i32 0, i32 0
  %7 = load ptr, ptr %4, align 8, !tbaa !4
  call void @llvm.memcpy.p0.p0.i64(ptr align 4 %6, ptr align 4 %7, i64 8, i1 false), !tbaa.struct !79
  ret void
}

; Function Attrs: mustprogress nounwind uwtable
define linkonce_odr hidden void @_ZNSt11_Tuple_implILm1EJN2cv5Size_IiEEEEC2ERKS2_(ptr noundef nonnull align 4 dereferenceable(8) %0, ptr noundef nonnull align 4 dereferenceable(8) %1) unnamed_addr #9 comdat align 2 {
  %3 = alloca ptr, align 8
  %4 = alloca ptr, align 8
  store ptr %0, ptr %3, align 8, !tbaa !500
  store ptr %1, ptr %4, align 8, !tbaa !4
  %5 = load ptr, ptr %3, align 8
  %6 = load ptr, ptr %4, align 8, !tbaa !4
  call void @_ZNSt10_Head_baseILm1EN2cv5Size_IiEELb0EEC2ERKS2_(ptr noundef nonnull align 4 dereferenceable(8) %5, ptr noundef nonnull align 4 dereferenceable(8) %6)
  ret void
}

; Function Attrs: mustprogress uwtable
define linkonce_odr hidden void @_ZN7testing8internal23CartesianProductHolder2INS0_12ValueArray12IiiiiiiiiiiiiEENS0_11ValueArray2ISt5tupleIJN2cv5Size_IiEES8_EES9_EEEC2ERKS3_RKSA_(ptr noundef nonnull align 4 dereferenceable(80) %0, ptr noundef nonnull align 4 dereferenceable(48) %1, ptr noundef nonnull align 4 dereferenceable(32) %2) unnamed_addr #6 comdat align 2 {
  %4 = alloca ptr, align 8
  %5 = alloca ptr, align 8
  %6 = alloca ptr, align 8
  store ptr %0, ptr %4, align 8, !tbaa !483
  store ptr %1, ptr %5, align 8, !tbaa !479
  store ptr %2, ptr %6, align 8, !tbaa !481
  %7 = load ptr, ptr %4, align 8
  %8 = getelementptr inbounds nuw %"class.testing::internal::CartesianProductHolder2", ptr %7, i32 0, i32 0
  %9 = load ptr, ptr %5, align 8, !tbaa !479
  call void @_ZN7testing8internal12ValueArray12IiiiiiiiiiiiiEC2ERKS2_(ptr noundef nonnull align 4 dereferenceable(48) %8, ptr noundef nonnull align 4 dereferenceable(48) %9)
  %10 = getelementptr inbounds nuw %"class.testing::internal::CartesianProductHolder2", ptr %7, i32 0, i32 1
  %11 = load ptr, ptr %6, align 8, !tbaa !481
  call void @_ZN7testing8internal11ValueArray2ISt5tupleIJN2cv5Size_IiEES5_EES6_EC2ERKS7_(ptr noundef nonnull align 4 dereferenceable(32) %10, ptr noundef nonnull align 4 dereferenceable(32) %11)
  ret void
}

; Function Attrs: mustprogress nounwind uwtable
define linkonce_odr hidden void @_ZN7testing8internal11ValueArray2ISt5tupleIJN2cv5Size_IiEES5_EES6_EC2ES6_S6_(ptr noundef nonnull align 4 dereferenceable(32) %0, ptr noundef %1, ptr noundef %2) unnamed_addr #9 comdat align 2 {
  %4 = alloca ptr, align 8
  %5 = alloca ptr, align 8
  %6 = alloca ptr, align 8
  store ptr %0, ptr %4, align 8, !tbaa !481
  store ptr %1, ptr %5, align 8, !tbaa !118
  store ptr %2, ptr %6, align 8, !tbaa !118
  %7 = load ptr, ptr %4, align 8
  %8 = getelementptr inbounds nuw %"class.testing::internal::ValueArray2", ptr %7, i32 0, i32 0
  call void @llvm.memcpy.p0.p0.i64(ptr align 4 %8, ptr align 4 %1, i64 16, i1 false)
  %9 = getelementptr inbounds nuw %"class.testing::internal::ValueArray2", ptr %7, i32 0, i32 1
  call void @llvm.memcpy.p0.p0.i64(ptr align 4 %9, ptr align 4 %2, i64 16, i1 false)
  ret void
}

; Function Attrs: noinline noreturn nounwind uwtable
define linkonce_odr hidden void @__clang_call_terminate(ptr noundef %0) #8 comdat {
  %2 = call ptr @__cxa_begin_catch(ptr %0) #3
  call void @_ZSt9terminatev() #28
  unreachable
}

; Function Attrs: mustprogress uwtable
define linkonce_odr hidden void @_ZNSt11_Tuple_implILm0EJN2cv5Size_IiEES2_EEC2ERKS2_S5_(ptr noundef nonnull align 4 dereferenceable(16) %0, ptr noundef nonnull align 4 dereferenceable(8) %1, ptr noundef nonnull align 4 dereferenceable(8) %2) unnamed_addr #6 comdat align 2 {
  %4 = alloca ptr, align 8
  %5 = alloca ptr, align 8
  %6 = alloca ptr, align 8
  store ptr %0, ptr %4, align 8, !tbaa !498
  store ptr %1, ptr %5, align 8, !tbaa !4
  store ptr %2, ptr %6, align 8, !tbaa !4
  %7 = load ptr, ptr %4, align 8
  %8 = load ptr, ptr %6, align 8, !tbaa !4
  call void @_ZNSt11_Tuple_implILm1EJN2cv5Size_IiEEEEC2ERKS2_(ptr noundef nonnull align 4 dereferenceable(8) %7, ptr noundef nonnull align 4 dereferenceable(8) %8)
  %9 = getelementptr inbounds i8, ptr %7, i64 8
  %10 = load ptr, ptr %5, align 8, !tbaa !4
  call void @_ZNSt10_Head_baseILm0EN2cv5Size_IiEELb0EEC2ERKS2_(ptr noundef nonnull align 4 dereferenceable(8) %9, ptr noundef nonnull align 4 dereferenceable(8) %10)
  ret void
}

; Function Attrs: mustprogress nounwind uwtable
define linkonce_odr hidden void @_ZN7testing8internal12ValueArray12IiiiiiiiiiiiiEC2Eiiiiiiiiiiii(ptr noundef nonnull align 4 dereferenceable(48) %0, i32 noundef %1, i32 noundef %2, i32 noundef %3, i32 noundef %4, i32 noundef %5, i32 noundef %6, i32 noundef %7, i32 noundef %8, i32 noundef %9, i32 noundef %10, i32 noundef %11, i32 noundef %12) unnamed_addr #9 comdat align 2 {
  %14 = alloca ptr, align 8
  %15 = alloca i32, align 4
  %16 = alloca i32, align 4
  %17 = alloca i32, align 4
  %18 = alloca i32, align 4
  %19 = alloca i32, align 4
  %20 = alloca i32, align 4
  %21 = alloca i32, align 4
  %22 = alloca i32, align 4
  %23 = alloca i32, align 4
  %24 = alloca i32, align 4
  %25 = alloca i32, align 4
  %26 = alloca i32, align 4
  store ptr %0, ptr %14, align 8, !tbaa !479
  store i32 %1, ptr %15, align 4, !tbaa !9
  store i32 %2, ptr %16, align 4, !tbaa !9
  store i32 %3, ptr %17, align 4, !tbaa !9
  store i32 %4, ptr %18, align 4, !tbaa !9
  store i32 %5, ptr %19, align 4, !tbaa !9
  store i32 %6, ptr %20, align 4, !tbaa !9
  store i32 %7, ptr %21, align 4, !tbaa !9
  store i32 %8, ptr %22, align 4, !tbaa !9
  store i32 %9, ptr %23, align 4, !tbaa !9
  store i32 %10, ptr %24, align 4, !tbaa !9
  store i32 %11, ptr %25, align 4, !tbaa !9
  store i32 %12, ptr %26, align 4, !tbaa !9
  %27 = load ptr, ptr %14, align 8
  %28 = getelementptr inbounds nuw %"class.testing::internal::ValueArray12", ptr %27, i32 0, i32 0
  %29 = load i32, ptr %15, align 4, !tbaa !9
  store i32 %29, ptr %28, align 4, !tbaa !485
  %30 = getelementptr inbounds nuw %"class.testing::internal::ValueArray12", ptr %27, i32 0, i32 1
  %31 = load i32, ptr %16, align 4, !tbaa !9
  store i32 %31, ptr %30, align 4, !tbaa !487
  %32 = getelementptr inbounds nuw %"class.testing::internal::ValueArray12", ptr %27, i32 0, i32 2
  %33 = load i32, ptr %17, align 4, !tbaa !9
  store i32 %33, ptr %32, align 4, !tbaa !488
  %34 = getelementptr inbounds nuw %"class.testing::internal::ValueArray12", ptr %27, i32 0, i32 3
  %35 = load i32, ptr %18, align 4, !tbaa !9
  store i32 %35, ptr %34, align 4, !tbaa !489
  %36 = getelementptr inbounds nuw %"class.testing::internal::ValueArray12", ptr %27, i32 0, i32 4
  %37 = load i32, ptr %19, align 4, !tbaa !9
  store i32 %37, ptr %36, align 4, !tbaa !490
  %38 = getelementptr inbounds nuw %"class.testing::internal::ValueArray12", ptr %27, i32 0, i32 5
  %39 = load i32, ptr %20, align 4, !tbaa !9
  store i32 %39, ptr %38, align 4, !tbaa !491
  %40 = getelementptr inbounds nuw %"class.testing::internal::ValueArray12", ptr %27, i32 0, i32 6
  %41 = load i32, ptr %21, align 4, !tbaa !9
  store i32 %41, ptr %40, align 4, !tbaa !492
  %42 = getelementptr inbounds nuw %"class.testing::internal::ValueArray12", ptr %27, i32 0, i32 7
  %43 = load i32, ptr %22, align 4, !tbaa !9
  store i32 %43, ptr %42, align 4, !tbaa !493
  %44 = getelementptr inbounds nuw %"class.testing::internal::ValueArray12", ptr %27, i32 0, i32 8
  %45 = load i32, ptr %23, align 4, !tbaa !9
  store i32 %45, ptr %44, align 4, !tbaa !494
  %46 = getelementptr inbounds nuw %"class.testing::internal::ValueArray12", ptr %27, i32 0, i32 9
  %47 = load i32, ptr %24, align 4, !tbaa !9
  store i32 %47, ptr %46, align 4, !tbaa !495
  %48 = getelementptr inbounds nuw %"class.testing::internal::ValueArray12", ptr %27, i32 0, i32 10
  %49 = load i32, ptr %25, align 4, !tbaa !9
  store i32 %49, ptr %48, align 4, !tbaa !496
  %50 = getelementptr inbounds nuw %"class.testing::internal::ValueArray12", ptr %27, i32 0, i32 11
  %51 = load i32, ptr %26, align 4, !tbaa !9
  store i32 %51, ptr %50, align 4, !tbaa !497
  ret void
}

; Function Attrs: mustprogress uwtable
define linkonce_odr hidden void @_ZN7testing7CombineINS_8internal12ValueArray12IiiiiiiiiiiiiEENS1_11ValueArray2ISt5tupleIJN2cv5Size_IiEES8_EES9_EEEENS1_23CartesianProductHolder2IT_T0_EERKSC_RKSD_(ptr dead_on_unwind noalias writable sret(%"class.testing::internal::CartesianProductHolder2") align 4 %0, ptr noundef nonnull align 4 dereferenceable(48) %1, ptr noundef nonnull align 4 dereferenceable(32) %2) #6 comdat {
  %4 = alloca ptr, align 8
  %5 = alloca ptr, align 8
  %6 = alloca ptr, align 8
  store ptr %0, ptr %4, align 8
  store ptr %1, ptr %5, align 8, !tbaa !479
  store ptr %2, ptr %6, align 8, !tbaa !481
  %7 = load ptr, ptr %5, align 8, !tbaa !479
  %8 = load ptr, ptr %6, align 8, !tbaa !481
  call void @_ZN7testing8internal23CartesianProductHolder2INS0_12ValueArray12IiiiiiiiiiiiiEENS0_11ValueArray2ISt5tupleIJN2cv5Size_IiEES8_EES9_EEEC2ERKS3_RKSA_(ptr noundef nonnull align 4 dereferenceable(80) %0, ptr noundef nonnull align 4 dereferenceable(48) %7, ptr noundef nonnull align 4 dereferenceable(32) %8)
  ret void
}

; Function Attrs: mustprogress uwtable
define linkonce_odr hidden void @_ZN7testing6ValuesISt5tupleIJN2cv5Size_IiEES4_EES5_EENS_8internal11ValueArray2IT_T0_EES8_S9_(ptr dead_on_unwind noalias writable sret(%"class.testing::internal::ValueArray2") align 4 %0, ptr noundef %1, ptr noundef %2) #6 comdat {
  %4 = alloca ptr, align 8
  %5 = alloca ptr, align 8
  %6 = alloca ptr, align 8
  %7 = alloca %"class.std::tuple.46", align 4
  %8 = alloca %"class.std::tuple.46", align 4
  store ptr %0, ptr %4, align 8
  store ptr %1, ptr %5, align 8, !tbaa !118
  store ptr %2, ptr %6, align 8, !tbaa !118
  call void @llvm.memcpy.p0.p0.i64(ptr align 4 %7, ptr align 4 %1, i64 16, i1 false)
  call void @llvm.memcpy.p0.p0.i64(ptr align 4 %8, ptr align 4 %2, i64 16, i1 false)
  call void @_ZN7testing8internal11ValueArray2ISt5tupleIJN2cv5Size_IiEES5_EES6_EC2ES6_S6_(ptr noundef nonnull align 4 dereferenceable(32) %0, ptr noundef %7, ptr noundef %8)
  ret void
}

; Function Attrs: mustprogress nounwind uwtable
define linkonce_odr hidden void @_ZNSt5tupleIJN2cv5Size_IiEES2_EEC2ILb1ETnNSt9enable_ifIXclsr4_TCCIXT_EEE29__is_implicitly_constructibleIRKS2_S7_EEEbE4typeELb1EEES7_S7_(ptr noundef nonnull align 4 dereferenceable(16) %0, ptr noundef nonnull align 4 dereferenceable(8) %1, ptr noundef nonnull align 4 dereferenceable(8) %2) unnamed_addr #9 comdat align 2 personality ptr @__gxx_personality_v0 {
  %4 = alloca ptr, align 8
  %5 = alloca ptr, align 8
  %6 = alloca ptr, align 8
  store ptr %0, ptr %4, align 8, !tbaa !118
  store ptr %1, ptr %5, align 8, !tbaa !4
  store ptr %2, ptr %6, align 8, !tbaa !4
  %7 = load ptr, ptr %4, align 8
  %8 = load ptr, ptr %5, align 8, !tbaa !4
  %9 = load ptr, ptr %6, align 8, !tbaa !4
  invoke void @_ZNSt11_Tuple_implILm0EJN2cv5Size_IiEES2_EEC2ERKS2_S5_(ptr noundef nonnull align 4 dereferenceable(16) %7, ptr noundef nonnull align 4 dereferenceable(8) %8, ptr noundef nonnull align 4 dereferenceable(8) %9)
          to label %10 unwind label %11

10:                                               ; preds = %3
  ret void

11:                                               ; preds = %3
  %12 = landingpad { ptr, i32 }
          catch ptr null
  %13 = extractvalue { ptr, i32 } %12, 0
  call void @__clang_call_terminate(ptr %13) #28
  unreachable
}

; Function Attrs: mustprogress uwtable
define linkonce_odr hidden void @_ZN7testing6ValuesIiiiiiiiiiiiiEENS_8internal12ValueArray12IT_T0_T1_T2_T3_T4_T5_T6_T7_T8_T9_T10_EES3_S4_S5_S6_S7_S8_S9_SA_SB_SC_SD_SE_(ptr dead_on_unwind noalias writable sret(%"class.testing::internal::ValueArray12") align 4 %0, i32 noundef %1, i32 noundef %2, i32 noundef %3, i32 noundef %4, i32 noundef %5, i32 noundef %6, i32 noundef %7, i32 noundef %8, i32 noundef %9, i32 noundef %10, i32 noundef %11, i32 noundef %12) #6 comdat {
  %14 = alloca ptr, align 8
  %15 = alloca i32, align 4
  %16 = alloca i32, align 4
  %17 = alloca i32, align 4
  %18 = alloca i32, align 4
  %19 = alloca i32, align 4
  %20 = alloca i32, align 4
  %21 = alloca i32, align 4
  %22 = alloca i32, align 4
  %23 = alloca i32, align 4
  %24 = alloca i32, align 4
  %25 = alloca i32, align 4
  %26 = alloca i32, align 4
  store ptr %0, ptr %14, align 8
  store i32 %1, ptr %15, align 4, !tbaa !9
  store i32 %2, ptr %16, align 4, !tbaa !9
  store i32 %3, ptr %17, align 4, !tbaa !9
  store i32 %4, ptr %18, align 4, !tbaa !9
  store i32 %5, ptr %19, align 4, !tbaa !9
  store i32 %6, ptr %20, align 4, !tbaa !9
  store i32 %7, ptr %21, align 4, !tbaa !9
  store i32 %8, ptr %22, align 4, !tbaa !9
  store i32 %9, ptr %23, align 4, !tbaa !9
  store i32 %10, ptr %24, align 4, !tbaa !9
  store i32 %11, ptr %25, align 4, !tbaa !9
  store i32 %12, ptr %26, align 4, !tbaa !9
  %27 = load i32, ptr %15, align 4, !tbaa !9
  %28 = load i32, ptr %16, align 4, !tbaa !9
  %29 = load i32, ptr %17, align 4, !tbaa !9
  %30 = load i32, ptr %18, align 4, !tbaa !9
  %31 = load i32, ptr %19, align 4, !tbaa !9
  %32 = load i32, ptr %20, align 4, !tbaa !9
  %33 = load i32, ptr %21, align 4, !tbaa !9
  %34 = load i32, ptr %22, align 4, !tbaa !9
  %35 = load i32, ptr %23, align 4, !tbaa !9
  %36 = load i32, ptr %24, align 4, !tbaa !9
  %37 = load i32, ptr %25, align 4, !tbaa !9
  %38 = load i32, ptr %26, align 4, !tbaa !9
  call void @_ZN7testing8internal12ValueArray12IiiiiiiiiiiiiEC2Eiiiiiiiiiiii(ptr noundef nonnull align 4 dereferenceable(48) %0, i32 noundef %27, i32 noundef %28, i32 noundef %29, i32 noundef %30, i32 noundef %31, i32 noundef %32, i32 noundef %33, i32 noundef %34, i32 noundef %35, i32 noundef %36, i32 noundef %37, i32 noundef %38)
  ret void
}

; Function Attrs: mustprogress uwtable
define internal void @_ZN11opencv_testL60gtest_MatInfo_SizePair_resizeUpLinearNonExact_EvalGenerator_Ev(ptr dead_on_unwind noalias writable sret(%"class.testing::internal::ParamGenerator.40") align 8 %0) #6 {
  %2 = alloca ptr, align 8
  %3 = alloca %"class.testing::internal::CartesianProductHolder2", align 4
  %4 = alloca %"class.testing::internal::ValueArray12", align 4
  %5 = alloca %"class.testing::internal::ValueArray2", align 4
  %6 = alloca %"class.std::tuple.46", align 4
  %7 = alloca %"class.std::tuple.46", align 4
  store ptr %0, ptr %2, align 8
  call void @llvm.lifetime.start.p0(i64 80, ptr %3) #3
  call void @llvm.lifetime.start.p0(i64 48, ptr %4) #3
  call void @_ZN7testing6ValuesIiiiiiiiiiiiiEENS_8internal12ValueArray12IT_T0_T1_T2_T3_T4_T5_T6_T7_T8_T9_T10_EES3_S4_S5_S6_S7_S8_S9_SA_SB_SC_SD_SE_(ptr dead_on_unwind writable sret(%"class.testing::internal::ValueArray12") align 4 %4, i32 noundef 0, i32 noundef 8, i32 noundef 16, i32 noundef 24, i32 noundef 2, i32 noundef 10, i32 noundef 18, i32 noundef 26, i32 noundef 5, i32 noundef 13, i32 noundef 21, i32 noundef 29)
  call void @llvm.lifetime.start.p0(i64 32, ptr %5) #3
  call void @_ZNSt5tupleIJN2cv5Size_IiEES2_EEC2ILb1ETnNSt9enable_ifIXclsr4_TCCIXT_EEE29__is_implicitly_constructibleIRKS2_S7_EEEbE4typeELb1EEES7_S7_(ptr noundef nonnull align 4 dereferenceable(16) %6, ptr noundef nonnull align 4 dereferenceable(8) @_ZN4perfL5szVGAE, ptr noundef nonnull align 4 dereferenceable(8) @_ZN4perfL5szqHDE) #3
  call void @_ZNSt5tupleIJN2cv5Size_IiEES2_EEC2ILb1ETnNSt9enable_ifIXclsr4_TCCIXT_EEE29__is_implicitly_constructibleIRKS2_S7_EEEbE4typeELb1EEES7_S7_(ptr noundef nonnull align 4 dereferenceable(16) %7, ptr noundef nonnull align 4 dereferenceable(8) @_ZN4perfL5szVGAE, ptr noundef nonnull align 4 dereferenceable(8) @_ZN4perfL6sz720pE) #3
  call void @_ZN7testing6ValuesISt5tupleIJN2cv5Size_IiEES4_EES5_EENS_8internal11ValueArray2IT_T0_EES8_S9_(ptr dead_on_unwind writable sret(%"class.testing::internal::ValueArray2") align 4 %5, ptr noundef %6, ptr noundef %7)
  call void @_ZN7testing7CombineINS_8internal12ValueArray12IiiiiiiiiiiiiEENS1_11ValueArray2ISt5tupleIJN2cv5Size_IiEES8_EES9_EEEENS1_23CartesianProductHolder2IT_T0_EERKSC_RKSD_(ptr dead_on_unwind writable sret(%"class.testing::internal::CartesianProductHolder2") align 4 %3, ptr noundef nonnull align 4 dereferenceable(48) %4, ptr noundef nonnull align 4 dereferenceable(32) %5)
  call void @_ZNK7testing8internal23CartesianProductHolder2INS0_12ValueArray12IiiiiiiiiiiiiEENS0_11ValueArray2ISt5tupleIJN2cv5Size_IiEES8_EES9_EEEcvNS0_14ParamGeneratorIS5_IJT_T0_EEEEIN4perf7MatTypeES9_EEv(ptr dead_on_unwind writable sret(%"class.testing::internal::ParamGenerator.40") align 8 %0, ptr noundef nonnull align 4 dereferenceable(80) %3)
  call void @llvm.lifetime.end.p0(i64 32, ptr %5) #3
  call void @llvm.lifetime.end.p0(i64 48, ptr %4) #3
  call void @llvm.lifetime.end.p0(i64 80, ptr %3) #3
  ret void
}