; Function Attrs: mustprogress uwtable
define internal void @_ZN11opencv_testL60gtest_MatInfo_SizePair_resizeUpLinearNonExact_EvalGenerator_Ev(ptr dead_on_unwind noalias writable sret(%"class.testing::internal::ParamGenerator.40") align 8 %0) #4 personality ptr @__gxx_personality_v0 {
  %2 = alloca %"class.testing::internal::CartesianProductHolder2", align 4
  call void @llvm.lifetime.start.p0(i64 80, ptr nonnull %2) #31
  %3 = load i64, ptr @_ZN4perfL5szqHDE, align 8
  %4 = load i64, ptr @_ZN4perfL5szVGAE, align 8
  %5 = load i64, ptr @_ZN4perfL6sz720pE, align 8
  store i32 0, ptr %2, align 4, !tbaa !117, !alias.scope !119
  %6 = getelementptr inbounds nuw i8, ptr %2, i64 4
  store i32 8, ptr %6, align 4, !tbaa !122, !alias.scope !119
  %7 = getelementptr inbounds nuw i8, ptr %2, i64 8
  store i32 16, ptr %7, align 4, !tbaa !123, !alias.scope !119
  %8 = getelementptr inbounds nuw i8, ptr %2, i64 12
  store i32 24, ptr %8, align 4, !tbaa !124, !alias.scope !119
  %9 = getelementptr inbounds nuw i8, ptr %2, i64 16
  store i32 2, ptr %9, align 4, !tbaa !125, !alias.scope !119
  %10 = getelementptr inbounds nuw i8, ptr %2, i64 20
  store i32 10, ptr %10, align 4, !tbaa !126, !alias.scope !119
  %11 = getelementptr inbounds nuw i8, ptr %2, i64 24
  store i32 18, ptr %11, align 4, !tbaa !127, !alias.scope !119
  %12 = getelementptr inbounds nuw i8, ptr %2, i64 28
  store i32 26, ptr %12, align 4, !tbaa !128, !alias.scope !119
  %13 = getelementptr inbounds nuw i8, ptr %2, i64 32
  store i32 5, ptr %13, align 4, !tbaa !129, !alias.scope !119
  %14 = getelementptr inbounds nuw i8, ptr %2, i64 36
  store i32 13, ptr %14, align 4, !tbaa !130, !alias.scope !119
  %15 = getelementptr inbounds nuw i8, ptr %2, i64 40
  store i32 21, ptr %15, align 4, !tbaa !131, !alias.scope !119
  %16 = getelementptr inbounds nuw i8, ptr %2, i64 44
  store i32 29, ptr %16, align 4, !tbaa !132, !alias.scope !119
  %17 = getelementptr inbounds nuw i8, ptr %2, i64 48
  store i64 %3, ptr %17, align 4
  %.sroa.4.0..sroa_idx = getelementptr inbounds nuw i8, ptr %2, i64 56
  store i64 %4, ptr %.sroa.4.0..sroa_idx, align 4
  %18 = getelementptr inbounds nuw i8, ptr %2, i64 64
  store i64 %5, ptr %18, align 4
  %.sroa.7.16..sroa_idx = getelementptr inbounds nuw i8, ptr %2, i64 72
  store i64 %4, ptr %.sroa.7.16..sroa_idx, align 4
  call void @_ZNK7testing8internal23CartesianProductHolder2INS0_12ValueArray12IiiiiiiiiiiiiEENS0_11ValueArray2ISt5tupleIJN2cv5Size_IiEES8_EES9_EEEcvNS0_14ParamGeneratorIS5_IJT_T0_EEEEIN4perf7MatTypeES9_EEv(ptr dead_on_unwind writable sret(%"class.testing::internal::ParamGenerator.40") align 8 %0, ptr noundef nonnull align 4 dereferenceable(80) %2)
  call void @llvm.lifetime.end.p0(i64 80, ptr nonnull %2) #31
  ret void
}